target datalayout = "e-m:e-p270:32:32-p271:32:32-p272:64:64-i64:64-i128:128-f80:128-n8:16:32:64-S128"
target triple = "x86_64-pc-linux-gnu"

%struct.RelationData = type { %struct.RelFileLocator, ptr, i32, i32, i8, i8, i8, i8, i8, i32, i32, i32, i32, ptr, ptr, i32, %struct.LockInfoData, ptr, ptr, ptr, ptr, ptr, i8, ptr, ptr, ptr, ptr, ptr, ptr, i32, ptr, i8, ptr, ptr, i32, i8, i32, ptr, i8, ptr, ptr, ptr, ptr, ptr, ptr, ptr, i32, ptr, ptr, ptr, ptr, ptr, ptr, ptr, ptr, ptr, ptr, ptr, ptr, ptr, ptr, ptr, ptr, ptr, ptr, ptr, i32, i8, ptr }
%struct.RelFileLocator = type { i32, i32, i32 }
%struct.LockInfoData = type { %struct.LockRelId }
%struct.LockRelId = type { i32, i32 }
%struct.LOCKTAG = type { i32, i32, i32, i16, i8, i8 }
%struct.ItemPointerData = type { %struct.BlockIdData, i16 }
%struct.BlockIdData = type { i16, i16 }

; Function Attrs: inlinehint nounwind uwtable
define internal i32 @BlockIdGetBlockNumber(ptr noundef %0) #2 {
  %2 = alloca ptr, align 8
  store ptr %0, ptr %2, align 8
  %3 = load ptr, ptr %2, align 8
  %4 = getelementptr inbounds nuw %struct.BlockIdData, ptr %3, i32 0, i32 0
  %5 = load i16, ptr %4, align 2
  %6 = zext i16 %5 to i32
  %7 = shl i32 %6, 16
  %8 = load ptr, ptr %2, align 8
  %9 = getelementptr inbounds nuw %struct.BlockIdData, ptr %8, i32 0, i32 1
  %10 = load i16, ptr %9, align 2
  %11 = zext i16 %10 to i32
  %12 = or i32 %7, %11
  ret i32 %12
}

; Function Attrs: inlinehint nounwind uwtable
define internal zeroext i16 @ItemPointerGetOffsetNumberNoCheck(ptr noundef %0) #2 {
  %2 = alloca ptr, align 8
  store ptr %0, ptr %2, align 8
  %3 = load ptr, ptr %2, align 8
  %4 = getelementptr inbounds nuw %struct.ItemPointerData, ptr %3, i32 0, i32 1
  %5 = load i16, ptr %4, align 2
  ret i16 %5
}

; Function Attrs: inlinehint nounwind uwtable
define internal i32 @ItemPointerGetBlockNumberNoCheck(ptr noundef %0) #2 {
  %2 = alloca ptr, align 8
  store ptr %0, ptr %2, align 8
  %3 = load ptr, ptr %2, align 8
  %4 = getelementptr inbounds nuw %struct.ItemPointerData, ptr %3, i32 0, i32 0
  %5 = call i32 @BlockIdGetBlockNumber(ptr noundef %4)
  ret i32 %5
}

; Function Attrs: inlinehint nounwind uwtable
define internal zeroext i16 @ItemPointerGetOffsetNumber(ptr noundef %0) #2 {
  %2 = alloca ptr, align 8
  store ptr %0, ptr %2, align 8
  %3 = load ptr, ptr %2, align 8
  %4 = call zeroext i16 @ItemPointerGetOffsetNumberNoCheck(ptr noundef %3)
  ret i16 %4
}

; Function Attrs: inlinehint nounwind uwtable
define internal i32 @ItemPointerGetBlockNumber(ptr noundef %0) #2 {
  %2 = alloca ptr, align 8
  store ptr %0, ptr %2, align 8
  %3 = load ptr, ptr %2, align 8
  %4 = call i32 @ItemPointerGetBlockNumberNoCheck(ptr noundef %3)
  ret i32 %4
}

; Function Attrs: nounwind uwtable
define dso_local void @UnlockTuple(ptr noundef %0, ptr noundef %1, i32 noundef %2) #0 {
  %4 = alloca ptr, align 8
  %5 = alloca ptr, align 8
  %6 = alloca i32, align 4
  %7 = alloca %struct.LOCKTAG, align 4
  store ptr %0, ptr %4, align 8
  store ptr %1, ptr %5, align 8
  store i32 %2, ptr %6, align 4
  call void @llvm.lifetime.start.p0(i64 16, ptr %7) #6
  %8 = load ptr, ptr %4, align 8
  %9 = getelementptr inbounds nuw %struct.RelationData, ptr %8, i32 0, i32 16
  %10 = getelementptr inbounds nuw %struct.LockInfoData, ptr %9, i32 0, i32 0
  %11 = getelementptr inbounds nuw %struct.LockRelId, ptr %10, i32 0, i32 1
  %12 = load i32, ptr %11, align 4
  %13 = getelementptr inbounds nuw %struct.LOCKTAG, ptr %7, i32 0, i32 0
  store i32 %12, ptr %13, align 4
  %14 = load ptr, ptr %4, align 8
  %15 = getelementptr inbounds nuw %struct.RelationData, ptr %14, i32 0, i32 16
  %16 = getelementptr inbounds nuw %struct.LockInfoData, ptr %15, i32 0, i32 0
  %17 = getelementptr inbounds nuw %struct.LockRelId, ptr %16, i32 0, i32 0
  %18 = load i32, ptr %17, align 4
  %19 = getelementptr inbounds nuw %struct.LOCKTAG, ptr %7, i32 0, i32 1
  store i32 %18, ptr %19, align 4
  %20 = load ptr, ptr %5, align 8
  %21 = call i32 @ItemPointerGetBlockNumber(ptr noundef %20)
  %22 = getelementptr inbounds nuw %struct.LOCKTAG, ptr %7, i32 0, i32 2
  store i32 %21, ptr %22, align 4
  %23 = load ptr, ptr %5, align 8
  %24 = call zeroext i16 @ItemPointerGetOffsetNumber(ptr noundef %23)
  %25 = getelementptr inbounds nuw %struct.LOCKTAG, ptr %7, i32 0, i32 3
  store i16 %24, ptr %25, align 4
  %26 = getelementptr inbounds nuw %struct.LOCKTAG, ptr %7, i32 0, i32 4
  store i8 4, ptr %26, align 2
  %27 = getelementptr inbounds nuw %struct.LOCKTAG, ptr %7, i32 0, i32 5
  store i8 1, ptr %27, align 1
  %28 = load i32, ptr %6, align 4
  %29 = call zeroext i1 @LockRelease(ptr noundef %7, i32 noundef %28, i1 noundef zeroext false)
  call void @llvm.lifetime.end.p0(i64 16, ptr %7) #6
  ret void
}